target datalayout = "e-m:e-p270:32:32-p271:32:32-p272:64:64-i64:64-i128:128-f80:128-n8:16:32:64-S128"
target triple = "x86_64-pc-linux-gnu"

%"struct.fmt::v11::detail::singleton" = type { i8, i8 }

; Function Attrs: inlinehint mustprogress nounwind uwtable
define linkonce_odr hidden noundef zeroext i1 @_ZN3fmt3v116detail12is_printableEtPKNS1_9singletonEmPKhS6_m(i16 noundef zeroext %0, ptr noundef %1, i64 noundef %2, ptr noundef %3, ptr noundef %4, i64 noundef %5) #12 comdat {
  %7 = alloca i1, align 1
  %8 = alloca i16, align 2
  %9 = alloca ptr, align 8
  %10 = alloca i64, align 8
  %11 = alloca ptr, align 8
  %12 = alloca ptr, align 8
  %13 = alloca i64, align 8
  %14 = alloca i32, align 4
  %15 = alloca i32, align 4
  %16 = alloca i64, align 8
  %17 = alloca i32, align 4
  %18 = alloca %"struct.fmt::v11::detail::singleton", align 1
  %19 = alloca i32, align 4
  %20 = alloca i32, align 4
  %21 = alloca i32, align 4
  %22 = alloca i8, align 1
  %23 = alloca i64, align 8
  %24 = alloca i32, align 4
  %25 = alloca i32, align 4
  store i16 %0, ptr %8, align 2, !tbaa !165
  store ptr %1, ptr %9, align 8, !tbaa !166
  store i64 %2, ptr %10, align 8, !tbaa !15
  store ptr %3, ptr %11, align 8, !tbaa !4
  store ptr %4, ptr %12, align 8, !tbaa !4
  store i64 %5, ptr %13, align 8, !tbaa !15
  call void @llvm.lifetime.start.p0(i64 4, ptr %14) #26
  %26 = load i16, ptr %8, align 2, !tbaa !165
  %27 = zext i16 %26 to i32
  %28 = ashr i32 %27, 8
  store i32 %28, ptr %14, align 4, !tbaa !9
  call void @llvm.lifetime.start.p0(i64 4, ptr %15) #26
  store i32 0, ptr %15, align 4, !tbaa !9
  call void @llvm.lifetime.start.p0(i64 8, ptr %16) #26
  store i64 0, ptr %16, align 8, !tbaa !15
  br label %29

29:                                               ; preds = %86, %6
  %30 = load i64, ptr %16, align 8, !tbaa !15
  %31 = load i64, ptr %10, align 8, !tbaa !15
  %32 = icmp ult i64 %30, %31
  br i1 %32, label %34, label %33

33:                                               ; preds = %29
  store i32 2, ptr %17, align 4
  br label %89

34:                                               ; preds = %29
  call void @llvm.lifetime.start.p0(i64 2, ptr %18) #26
  %35 = load ptr, ptr %9, align 8, !tbaa !166
  %36 = load i64, ptr %16, align 8, !tbaa !15
  %37 = getelementptr inbounds nuw %"struct.fmt::v11::detail::singleton", ptr %35, i64 %36
  call void @llvm.memcpy.p0.p0.i64(ptr align 1 %18, ptr align 1 %37, i64 2, i1 false), !tbaa.struct !168
  call void @llvm.lifetime.start.p0(i64 4, ptr %19) #26
  %38 = load i32, ptr %15, align 4, !tbaa !9
  %39 = getelementptr inbounds nuw %"struct.fmt::v11::detail::singleton", ptr %18, i32 0, i32 1
  %40 = load i8, ptr %39, align 1, !tbaa !169
  %41 = zext i8 %40 to i32
  %42 = add nsw i32 %38, %41
  store i32 %42, ptr %19, align 4, !tbaa !9
  %43 = load i32, ptr %14, align 4, !tbaa !9
  %44 = getelementptr inbounds nuw %"struct.fmt::v11::detail::singleton", ptr %18, i32 0, i32 0
  %45 = load i8, ptr %44, align 1, !tbaa !171
  %46 = zext i8 %45 to i32
  %47 = icmp slt i32 %43, %46
  br i1 %47, label %48, label %49

48:                                               ; preds = %34
  store i32 2, ptr %17, align 4
  br label %83

49:                                               ; preds = %34
  %50 = load i32, ptr %14, align 4, !tbaa !9
  %51 = getelementptr inbounds nuw %"struct.fmt::v11::detail::singleton", ptr %18, i32 0, i32 0
  %52 = load i8, ptr %51, align 1, !tbaa !171
  %53 = zext i8 %52 to i32
  %54 = icmp eq i32 %50, %53
  br i1 %54, label %55, label %81

55:                                               ; preds = %49
  call void @llvm.lifetime.start.p0(i64 4, ptr %20) #26
  %56 = load i32, ptr %15, align 4, !tbaa !9
  store i32 %56, ptr %20, align 4, !tbaa !9
  br label %57

57:                                               ; preds = %75, %55
  %58 = load i32, ptr %20, align 4, !tbaa !9
  %59 = load i32, ptr %19, align 4, !tbaa !9
  %60 = icmp slt i32 %58, %59
  br i1 %60, label %62, label %61

61:                                               ; preds = %57
  store i32 5, ptr %17, align 4
  br label %78

62:                                               ; preds = %57
  %63 = load ptr, ptr %11, align 8, !tbaa !4
  %64 = load i32, ptr %20, align 4, !tbaa !9
  %65 = sext i32 %64 to i64
  %66 = getelementptr inbounds i8, ptr %63, i64 %65
  %67 = load i8, ptr %66, align 1, !tbaa !53
  %68 = zext i8 %67 to i32
  %69 = load i16, ptr %8, align 2, !tbaa !165
  %70 = zext i16 %69 to i32
  %71 = and i32 %70, 255
  %72 = icmp eq i32 %68, %71
  br i1 %72, label %73, label %74

73:                                               ; preds = %62
  store i1 false, ptr %7, align 1
  store i32 1, ptr %17, align 4
  br label %78

74:                                               ; preds = %62
  br label %75

75:                                               ; preds = %74
  %76 = load i32, ptr %20, align 4, !tbaa !9
  %77 = add nsw i32 %76, 1
  store i32 %77, ptr %20, align 4, !tbaa !9
  br label %57, !llvm.loop !172

78:                                               ; preds = %73, %61
  call void @llvm.lifetime.end.p0(i64 4, ptr %20) #26
  %79 = load i32, ptr %17, align 4
  switch i32 %79, label %83 [
    i32 5, label %80
  ]

80:                                               ; preds = %78
  br label %81

81:                                               ; preds = %80, %49
  %82 = load i32, ptr %19, align 4, !tbaa !9
  store i32 %82, ptr %15, align 4, !tbaa !9
  store i32 0, ptr %17, align 4
  br label %83

83:                                               ; preds = %81, %78, %48
  call void @llvm.lifetime.end.p0(i64 4, ptr %19) #26
  call void @llvm.lifetime.end.p0(i64 2, ptr %18) #26
  %84 = load i32, ptr %17, align 4
  switch i32 %84, label %89 [
    i32 0, label %85
  ]

85:                                               ; preds = %83
  br label %86

86:                                               ; preds = %85
  %87 = load i64, ptr %16, align 8, !tbaa !15
  %88 = add i64 %87, 1
  store i64 %88, ptr %16, align 8, !tbaa !15
  br label %29, !llvm.loop !173

89:                                               ; preds = %83, %33
  call void @llvm.lifetime.end.p0(i64 8, ptr %16) #26
  %90 = load i32, ptr %17, align 4
  switch i32 %90, label %144 [
    i32 2, label %91
  ]

91:                                               ; preds = %89
  call void @llvm.lifetime.start.p0(i64 4, ptr %21) #26
  %92 = load i16, ptr %8, align 2, !tbaa !165
  %93 = zext i16 %92 to i32
  store i32 %93, ptr %21, align 4, !tbaa !9
  call void @llvm.lifetime.start.p0(i64 1, ptr %22) #26
  store i8 1, ptr %22, align 1, !tbaa !17
  call void @llvm.lifetime.start.p0(i64 8, ptr %23) #26
  store i64 0, ptr %23, align 8, !tbaa !15
  br label %94

94:                                               ; preds = %137, %91
  %95 = load i64, ptr %23, align 8, !tbaa !15
  %96 = load i64, ptr %13, align 8, !tbaa !15
  %97 = icmp ult i64 %95, %96
  br i1 %97, label %99, label %98

98:                                               ; preds = %94
  store i32 8, ptr %17, align 4
  br label %140

99:                                               ; preds = %94
  call void @llvm.lifetime.start.p0(i64 4, ptr %24) #26
  %100 = load ptr, ptr %12, align 8, !tbaa !4
  %101 = load i64, ptr %23, align 8, !tbaa !15
  %102 = getelementptr inbounds nuw i8, ptr %100, i64 %101
  %103 = load i8, ptr %102, align 1, !tbaa !53
  %104 = zext i8 %103 to i32
  store i32 %104, ptr %24, align 4, !tbaa !9
  call void @llvm.lifetime.start.p0(i64 4, ptr %25) #26
  %105 = load i32, ptr %24, align 4, !tbaa !9
  %106 = and i32 %105, 128
  %107 = icmp ne i32 %106, 0
  br i1 %107, label %108, label %119

108:                                              ; preds = %99
  %109 = load i32, ptr %24, align 4, !tbaa !9
  %110 = and i32 %109, 127
  %111 = shl i32 %110, 8
  %112 = load ptr, ptr %12, align 8, !tbaa !4
  %113 = load i64, ptr %23, align 8, !tbaa !15
  %114 = add i64 %113, 1
  store i64 %114, ptr %23, align 8, !tbaa !15
  %115 = getelementptr inbounds nuw i8, ptr %112, i64 %114
  %116 = load i8, ptr %115, align 1, !tbaa !53
  %117 = zext i8 %116 to i32
  %118 = or i32 %111, %117
  br label %121

119:                                              ; preds = %99
  %120 = load i32, ptr %24, align 4, !tbaa !9
  br label %121

121:                                              ; preds = %119, %108
  %122 = phi i32 [ %118, %108 ], [ %120, %119 ]
  store i32 %122, ptr %25, align 4, !tbaa !9
  %123 = load i32, ptr %25, align 4, !tbaa !9
  %124 = load i32, ptr %21, align 4, !tbaa !9
  %125 = sub nsw i32 %124, %123
  store i32 %125, ptr %21, align 4, !tbaa !9
  %126 = load i32, ptr %21, align 4, !tbaa !9
  %127 = icmp slt i32 %126, 0
  br i1 %127, label %128, label %129

128:                                              ; preds = %121
  store i32 8, ptr %17, align 4
  br label %134

129:                                              ; preds = %121
  %130 = load i8, ptr %22, align 1, !tbaa !17, !range !136, !noundef !137
  %131 = trunc i8 %130 to i1
  %132 = xor i1 %131, true
  %133 = zext i1 %132 to i8
  store i8 %133, ptr %22, align 1, !tbaa !17
  store i32 0, ptr %17, align 4
  br label %134

134:                                              ; preds = %129, %128
  call void @llvm.lifetime.end.p0(i64 4, ptr %25) #26
  call void @llvm.lifetime.end.p0(i64 4, ptr %24) #26
  %135 = load i32, ptr %17, align 4
  switch i32 %135, label %140 [
    i32 0, label %136
  ]

136:                                              ; preds = %134
  br label %137

137:                                              ; preds = %136
  %138 = load i64, ptr %23, align 8, !tbaa !15
  %139 = add i64 %138, 1
  store i64 %139, ptr %23, align 8, !tbaa !15
  br label %94, !llvm.loop !174

140:                                              ; preds = %134, %98
  call void @llvm.lifetime.end.p0(i64 8, ptr %23) #26
  br label %141

141:                                              ; preds = %140
  %142 = load i8, ptr %22, align 1, !tbaa !17, !range !136, !noundef !137
  %143 = trunc i8 %142 to i1
  store i1 %143, ptr %7, align 1
  store i32 1, ptr %17, align 4
  call void @llvm.lifetime.end.p0(i64 1, ptr %22) #26
  call void @llvm.lifetime.end.p0(i64 4, ptr %21) #26
  br label %144

144:                                              ; preds = %141, %89
  call void @llvm.lifetime.end.p0(i64 4, ptr %15) #26
  call void @llvm.lifetime.end.p0(i64 4, ptr %14) #26
  %145 = load i1, ptr %7, align 1
  ret i1 %145
}

; Function Attrs: mustprogress uwtable
define hidden noundef zeroext i1 @_ZN3fmt3v116detail12is_printableEj(i32 noundef %0) #4 {
  %2 = alloca i1, align 1
  %3 = alloca i32, align 4
  %4 = alloca i16, align 2
  %5 = alloca i32, align 4
  store i32 %0, ptr %3, align 4, !tbaa !9
  call void @llvm.lifetime.start.p0(i64 2, ptr %4) #26
  %6 = load i32, ptr %3, align 4, !tbaa !9
  %7 = trunc i32 %6 to i16
  store i16 %7, ptr %4, align 2, !tbaa !165
  %8 = load i32, ptr %3, align 4, !tbaa !9
  %9 = icmp ult i32 %8, 65536
  br i1 %9, label %10, label %13

10:                                               ; preds = %1
  %11 = load i16, ptr %4, align 2, !tbaa !165
  %12 = call noundef zeroext i1 @_ZN3fmt3v116detail12is_printableEtPKNS1_9singletonEmPKhS6_m(i16 noundef zeroext %11, ptr noundef @_ZZN3fmt3v116detail12is_printableEjE11singletons0, i64 noundef 41, ptr noundef @_ZZN3fmt3v116detail12is_printableEjE17singletons0_lower, ptr noundef @_ZZN3fmt3v116detail12is_printableEjE7normal0, i64 noundef 309)
  store i1 %12, ptr %2, align 1
  store i32 1, ptr %5, align 4
  br label %78

13:                                               ; preds = %1
  %14 = load i32, ptr %3, align 4, !tbaa !9
  %15 = icmp ult i32 %14, 131072
  br i1 %15, label %16, label %19

16:                                               ; preds = %13
  %17 = load i16, ptr %4, align 2, !tbaa !165
  %18 = call noundef zeroext i1 @_ZN3fmt3v116detail12is_printableEtPKNS1_9singletonEmPKhS6_m(i16 noundef zeroext %17, ptr noundef @_ZZN3fmt3v116detail12is_printableEjE11singletons1, i64 noundef 38, ptr noundef @_ZZN3fmt3v116detail12is_printableEjE17singletons1_lower, ptr noundef @_ZZN3fmt3v116detail12is_printableEjE7normal1, i64 noundef 419)
  store i1 %18, ptr %2, align 1
  store i32 1, ptr %5, align 4
  br label %78

19:                                               ; preds = %13
  %20 = load i32, ptr %3, align 4, !tbaa !9
  %21 = icmp ule i32 173790, %20
  br i1 %21, label %22, label %26

22:                                               ; preds = %19
  %23 = load i32, ptr %3, align 4, !tbaa !9
  %24 = icmp ult i32 %23, 173824
  br i1 %24, label %25, label %26

25:                                               ; preds = %22
  store i1 false, ptr %2, align 1
  store i32 1, ptr %5, align 4
  br label %78

26:                                               ; preds = %22, %19
  %27 = load i32, ptr %3, align 4, !tbaa !9
  %28 = icmp ule i32 177973, %27
  br i1 %28, label %29, label %33

29:                                               ; preds = %26
  %30 = load i32, ptr %3, align 4, !tbaa !9
  %31 = icmp ult i32 %30, 177984
  br i1 %31, label %32, label %33

32:                                               ; preds = %29
  store i1 false, ptr %2, align 1
  store i32 1, ptr %5, align 4
  br label %78

33:                                               ; preds = %29, %26
  %34 = load i32, ptr %3, align 4, !tbaa !9
  %35 = icmp ule i32 178206, %34
  br i1 %35, label %36, label %40

36:                                               ; preds = %33
  %37 = load i32, ptr %3, align 4, !tbaa !9
  %38 = icmp ult i32 %37, 178208
  br i1 %38, label %39, label %40

39:                                               ; preds = %36
  store i1 false, ptr %2, align 1
  store i32 1, ptr %5, align 4
  br label %78

40:                                               ; preds = %36, %33
  %41 = load i32, ptr %3, align 4, !tbaa !9
  %42 = icmp ule i32 183970, %41
  br i1 %42, label %43, label %47

43:                                               ; preds = %40
  %44 = load i32, ptr %3, align 4, !tbaa !9
  %45 = icmp ult i32 %44, 183984
  br i1 %45, label %46, label %47

46:                                               ; preds = %43
  store i1 false, ptr %2, align 1
  store i32 1, ptr %5, align 4
  br label %78

47:                                               ; preds = %43, %40
  %48 = load i32, ptr %3, align 4, !tbaa !9
  %49 = icmp ule i32 191457, %48
  br i1 %49, label %50, label %54

50:                                               ; preds = %47
  %51 = load i32, ptr %3, align 4, !tbaa !9
  %52 = icmp ult i32 %51, 194560
  br i1 %52, label %53, label %54

53:                                               ; preds = %50
  store i1 false, ptr %2, align 1
  store i32 1, ptr %5, align 4
  br label %78

54:                                               ; preds = %50, %47
  %55 = load i32, ptr %3, align 4, !tbaa !9
  %56 = icmp ule i32 195102, %55
  br i1 %56, label %57, label %61

57:                                               ; preds = %54
  %58 = load i32, ptr %3, align 4, !tbaa !9
  %59 = icmp ult i32 %58, 196608
  br i1 %59, label %60, label %61

60:                                               ; preds = %57
  store i1 false, ptr %2, align 1
  store i32 1, ptr %5, align 4
  br label %78

61:                                               ; preds = %57, %54
  %62 = load i32, ptr %3, align 4, !tbaa !9
  %63 = icmp ule i32 201547, %62
  br i1 %63, label %64, label %68

64:                                               ; preds = %61
  %65 = load i32, ptr %3, align 4, !tbaa !9
  %66 = icmp ult i32 %65, 917760
  br i1 %66, label %67, label %68

67:                                               ; preds = %64
  store i1 false, ptr %2, align 1
  store i32 1, ptr %5, align 4
  br label %78

68:                                               ; preds = %64, %61
  %69 = load i32, ptr %3, align 4, !tbaa !9
  %70 = icmp ule i32 918000, %69
  br i1 %70, label %71, label %75

71:                                               ; preds = %68
  %72 = load i32, ptr %3, align 4, !tbaa !9
  %73 = icmp ult i32 %72, 1114112
  br i1 %73, label %74, label %75

74:                                               ; preds = %71
  store i1 false, ptr %2, align 1
  store i32 1, ptr %5, align 4
  br label %78

75:                                               ; preds = %71, %68
  %76 = load i32, ptr %3, align 4, !tbaa !9
  %77 = icmp ult i32 %76, 1114112
  store i1 %77, ptr %2, align 1
  store i32 1, ptr %5, align 4
  br label %78

78:                                               ; preds = %75, %74, %67, %60, %53, %46, %39, %32, %25, %16, %10
  call void @llvm.lifetime.end.p0(i64 2, ptr %4) #26
  %79 = load i1, ptr %2, align 1
  ret i1 %79
}