; Function Attrs: mustprogress nofree norecurse nosync nounwind willreturn memory(none) uwtable
define hidden noundef zeroext i1 @_ZN3fmt3v116detail12is_printableEj(i32 noundef %0) local_unnamed_addr #15 {
  %2 = icmp ult i32 %0, 65536
  br i1 %2, label %3, label %40

3:                                                ; preds = %1
  %4 = lshr i32 %0, 8
  %5 = trunc i32 %0 to i8
  br label %6

6:                                                ; preds = %.loopexit.i, %3
  %.04171.i = phi i32 [ 0, %3 ], [ %9, %.loopexit.i ]
  %.05070.i = phi i64 [ 0, %3 ], [ %20, %.loopexit.i ]
  %7 = getelementptr inbounds nuw %"struct.fmt::v11::detail::singleton", ptr @_ZZN3fmt3v116detail12is_printableEjE11singletons0, i64 %.05070.i
  %.sroa.0.0.copyload.i = load i8, ptr %7, align 2, !tbaa !14
  %.sroa.5.0..sroa_idx.i = getelementptr inbounds nuw i8, ptr %7, i64 1
  %.sroa.5.0.copyload.i = load i8, ptr %.sroa.5.0..sroa_idx.i, align 1, !tbaa !14
  %8 = zext i8 %.sroa.5.0.copyload.i to i32
  %9 = add nuw nsw i32 %.04171.i, %8
  %10 = zext i8 %.sroa.0.0.copyload.i to i32
  %11 = icmp samesign ult i32 %4, %10
  br i1 %11, label %.lr.ph78.i.preheader, label %12

12:                                               ; preds = %6
  %13 = icmp eq i32 %4, %10
  %.not68.i = icmp ne i8 %.sroa.5.0.copyload.i, 0
  %or.cond.i = select i1 %13, i1 %.not68.i, i1 false
  br i1 %or.cond.i, label %.lr.ph.preheader.i, label %.loopexit.i

.lr.ph.preheader.i:                               ; preds = %12
  %14 = zext nneg i32 %.04171.i to i64
  %15 = zext nneg i32 %9 to i64
  br label %.lr.ph.i

16:                                               ; preds = %.lr.ph.i
  %indvars.iv.next.i = add nuw nsw i64 %indvars.iv.i, 1
  %.not.i = icmp samesign ult i64 %indvars.iv.next.i, %15
  br i1 %.not.i, label %.lr.ph.i, label %.loopexit.i, !llvm.loop !137

.lr.ph.i:                                         ; preds = %16, %.lr.ph.preheader.i
  %indvars.iv.i = phi i64 [ %14, %.lr.ph.preheader.i ], [ %indvars.iv.next.i, %16 ]
  %17 = getelementptr inbounds nuw i8, ptr @_ZZN3fmt3v116detail12is_printableEjE17singletons0_lower, i64 %indvars.iv.i
  %18 = load i8, ptr %17, align 1, !tbaa !14
  %19 = icmp eq i8 %18, %5
  br i1 %19, label %_ZN3fmt3v116detail12is_printableEtPKNS1_9singletonEmPKhS6_m.exit, label %16

.loopexit.i:                                      ; preds = %16, %12
  %20 = add nuw nsw i64 %.05070.i, 1
  %exitcond.not.i = icmp eq i64 %20, 41
  br i1 %exitcond.not.i, label %.lr.ph78.i.preheader, label %6, !llvm.loop !138

.lr.ph78.i.preheader:                             ; preds = %.loopexit.i, %6
  br label %.lr.ph78.i

.lr.ph78.i:                                       ; preds = %.lr.ph78.i.preheader, %36
  %.04376.i = phi i64 [ %38, %36 ], [ 0, %.lr.ph78.i.preheader ]
  %.04575.i = phi i1 [ %37, %36 ], [ true, %.lr.ph78.i.preheader ]
  %.04874.i = phi i32 [ %34, %36 ], [ %0, %.lr.ph78.i.preheader ]
  %21 = getelementptr inbounds nuw i8, ptr @_ZZN3fmt3v116detail12is_printableEjE7normal0, i64 %.04376.i
  %22 = load i8, ptr %21, align 1, !tbaa !14
  %23 = zext i8 %22 to i32
  %.not57.i = icmp sgt i8 %22, -1
  br i1 %.not57.i, label %32, label %24

24:                                               ; preds = %.lr.ph78.i
  %25 = shl nuw nsw i32 %23, 8
  %26 = and i32 %25, 32512
  %27 = add nuw nsw i64 %.04376.i, 1
  %28 = getelementptr inbounds nuw i8, ptr @_ZZN3fmt3v116detail12is_printableEjE7normal0, i64 %27
  %29 = load i8, ptr %28, align 1, !tbaa !14
  %30 = zext i8 %29 to i32
  %31 = or disjoint i32 %26, %30
  br label %32

32:                                               ; preds = %24, %.lr.ph78.i
  %.144.i = phi i64 [ %27, %24 ], [ %.04376.i, %.lr.ph78.i ]
  %33 = phi i32 [ %31, %24 ], [ %23, %.lr.ph78.i ]
  %34 = sub nsw i32 %.04874.i, %33
  %35 = icmp sgt i32 %34, -1
  br i1 %35, label %36, label %_ZN3fmt3v116detail12is_printableEtPKNS1_9singletonEmPKhS6_m.exit

36:                                               ; preds = %32
  %37 = xor i1 %.04575.i, true
  %38 = add i64 %.144.i, 1
  %39 = icmp ult i64 %38, 309
  br i1 %39, label %.lr.ph78.i, label %_ZN3fmt3v116detail12is_printableEtPKNS1_9singletonEmPKhS6_m.exit, !llvm.loop !139

40:                                               ; preds = %1
  %41 = icmp ult i32 %0, 131072
  br i1 %41, label %42, label %80

42:                                               ; preds = %40
  %43 = and i32 %0, 65535
  %44 = lshr i32 %43, 8
  %45 = trunc i32 %0 to i8
  br label %46

46:                                               ; preds = %.loopexit.i52, %42
  %.04171.i45 = phi i32 [ 0, %42 ], [ %49, %.loopexit.i52 ]
  %.05070.i46 = phi i64 [ 0, %42 ], [ %60, %.loopexit.i52 ]
  %47 = getelementptr inbounds nuw %"struct.fmt::v11::detail::singleton", ptr @_ZZN3fmt3v116detail12is_printableEjE11singletons1, i64 %.05070.i46
  %.sroa.0.0.copyload.i47 = load i8, ptr %47, align 2, !tbaa !14
  %.sroa.5.0..sroa_idx.i48 = getelementptr inbounds nuw i8, ptr %47, i64 1
  %.sroa.5.0.copyload.i49 = load i8, ptr %.sroa.5.0..sroa_idx.i48, align 1, !tbaa !14
  %48 = zext i8 %.sroa.5.0.copyload.i49 to i32
  %49 = add nuw nsw i32 %.04171.i45, %48
  %50 = zext i8 %.sroa.0.0.copyload.i47 to i32
  %51 = icmp samesign ult i32 %44, %50
  br i1 %51, label %.lr.ph78.i55.preheader, label %52

52:                                               ; preds = %46
  %53 = icmp eq i32 %44, %50
  %.not68.i50 = icmp ne i8 %.sroa.5.0.copyload.i49, 0
  %or.cond.i51 = select i1 %53, i1 %.not68.i50, i1 false
  br i1 %or.cond.i51, label %.lr.ph.preheader.i62, label %.loopexit.i52

.lr.ph.preheader.i62:                             ; preds = %52
  %54 = zext nneg i32 %.04171.i45 to i64
  %55 = zext nneg i32 %49 to i64
  br label %.lr.ph.i63

56:                                               ; preds = %.lr.ph.i63
  %indvars.iv.next.i65 = add nuw nsw i64 %indvars.iv.i64, 1
  %.not.i66 = icmp samesign ult i64 %indvars.iv.next.i65, %55
  br i1 %.not.i66, label %.lr.ph.i63, label %.loopexit.i52, !llvm.loop !137

.lr.ph.i63:                                       ; preds = %56, %.lr.ph.preheader.i62
  %indvars.iv.i64 = phi i64 [ %54, %.lr.ph.preheader.i62 ], [ %indvars.iv.next.i65, %56 ]
  %57 = getelementptr inbounds nuw i8, ptr @_ZZN3fmt3v116detail12is_printableEjE17singletons1_lower, i64 %indvars.iv.i64
  %58 = load i8, ptr %57, align 1, !tbaa !14
  %59 = icmp eq i8 %58, %45
  br i1 %59, label %_ZN3fmt3v116detail12is_printableEtPKNS1_9singletonEmPKhS6_m.exit, label %56

.loopexit.i52:                                    ; preds = %56, %52
  %60 = add nuw nsw i64 %.05070.i46, 1
  %exitcond.not.i53 = icmp eq i64 %60, 38
  br i1 %exitcond.not.i53, label %.lr.ph78.i55.preheader, label %46, !llvm.loop !138

.lr.ph78.i55.preheader:                           ; preds = %.loopexit.i52, %46
  br label %.lr.ph78.i55

.lr.ph78.i55:                                     ; preds = %.lr.ph78.i55.preheader, %76
  %.04376.i56 = phi i64 [ %78, %76 ], [ 0, %.lr.ph78.i55.preheader ]
  %.04575.i57 = phi i1 [ %77, %76 ], [ true, %.lr.ph78.i55.preheader ]
  %.04874.i58 = phi i32 [ %74, %76 ], [ %43, %.lr.ph78.i55.preheader ]
  %61 = getelementptr inbounds nuw i8, ptr @_ZZN3fmt3v116detail12is_printableEjE7normal1, i64 %.04376.i56
  %62 = load i8, ptr %61, align 1, !tbaa !14
  %63 = zext i8 %62 to i32
  %.not57.i59 = icmp sgt i8 %62, -1
  br i1 %.not57.i59, label %72, label %64

64:                                               ; preds = %.lr.ph78.i55
  %65 = shl nuw nsw i32 %63, 8
  %66 = and i32 %65, 32512
  %67 = add nuw nsw i64 %.04376.i56, 1
  %68 = getelementptr inbounds nuw i8, ptr @_ZZN3fmt3v116detail12is_printableEjE7normal1, i64 %67
  %69 = load i8, ptr %68, align 1, !tbaa !14
  %70 = zext i8 %69 to i32
  %71 = or disjoint i32 %66, %70
  br label %72

72:                                               ; preds = %64, %.lr.ph78.i55
  %.144.i60 = phi i64 [ %67, %64 ], [ %.04376.i56, %.lr.ph78.i55 ]
  %73 = phi i32 [ %71, %64 ], [ %63, %.lr.ph78.i55 ]
  %74 = sub nsw i32 %.04874.i58, %73
  %75 = icmp sgt i32 %74, -1
  br i1 %75, label %76, label %_ZN3fmt3v116detail12is_printableEtPKNS1_9singletonEmPKhS6_m.exit

76:                                               ; preds = %72
  %77 = xor i1 %.04575.i57, true
  %78 = add i64 %.144.i60, 1
  %79 = icmp ult i64 %78, 419
  br i1 %79, label %.lr.ph78.i55, label %_ZN3fmt3v116detail12is_printableEtPKNS1_9singletonEmPKhS6_m.exit, !llvm.loop !139

80:                                               ; preds = %40
  %81 = add i32 %0, -173790
  %or.cond = icmp ult i32 %81, 34
  %82 = add i32 %0, -177973
  %or.cond3 = icmp ult i32 %82, 11
  %or.cond38 = or i1 %or.cond, %or.cond3
  %83 = and i32 %0, -2
  %or.cond5 = icmp eq i32 %83, 178206
  %or.cond39 = or i1 %or.cond5, %or.cond38
  %84 = add i32 %0, -183970
  %or.cond7 = icmp ult i32 %84, 14
  %or.cond40 = or i1 %or.cond7, %or.cond39
  %85 = add i32 %0, -191457
  %or.cond9 = icmp ult i32 %85, 3103
  %or.cond41 = or i1 %or.cond9, %or.cond40
  %86 = add i32 %0, -195102
  %or.cond11 = icmp ult i32 %86, 1506
  %or.cond42 = or i1 %or.cond11, %or.cond41
  %87 = add i32 %0, -201547
  %or.cond13 = icmp ult i32 %87, 716213
  %or.cond43 = or i1 %or.cond13, %or.cond42
  %88 = add i32 %0, -918000
  %or.cond15 = icmp ult i32 %88, 196112
  %or.cond44 = or i1 %or.cond15, %or.cond43
  %89 = icmp ult i32 %0, 1114112
  %not.or.cond44 = xor i1 %or.cond44, true
  %spec.select = and i1 %89, %not.or.cond44
  br label %_ZN3fmt3v116detail12is_printableEtPKNS1_9singletonEmPKhS6_m.exit

_ZN3fmt3v116detail12is_printableEtPKNS1_9singletonEmPKhS6_m.exit: ; preds = %.lr.ph.i63, %76, %72, %.lr.ph.i, %36, %32, %80
  %.0 = phi i1 [ %spec.select, %80 ], [ %.04575.i, %32 ], [ %37, %36 ], [ false, %.lr.ph.i ], [ %.04575.i57, %72 ], [ %77, %76 ], [ false, %.lr.ph.i63 ]
  ret i1 %.0
}